; Function Attrs: mustprogress nofree norecurse nosync nounwind willreturn memory(read, argmem: readwrite, inaccessiblemem: none) uwtable
define void @_ZNK32pxrInternal_v0_24__pxrReserved__10UsdZipFile8Iterator11GetFileInfoEv(ptr dead_on_unwind noalias nocapture writable writeonly sret(%"class.pxrInternal_v0_24__pxrReserved__::UsdZipFile::FileInfo") align 8 %0, ptr nocapture noundef nonnull readonly align 8 dereferenceable(8) %1) local_unnamed_addr #9 align 2 {
  tail call void @llvm.memset.p0.i64(ptr noundef nonnull align 8 dereferenceable(35) %0, i8 0, i64 35, i1 false)
  %3 = load ptr, ptr %1, align 8
  %.not = icmp eq ptr %3, null
  br i1 %.not, label %33, label %4

4:                                                ; preds = %2
  %5 = getelementptr inbounds i8, ptr %3, i64 64
  %6 = load ptr, ptr %5, align 8
  %7 = load ptr, ptr %3, align 8
  %8 = getelementptr inbounds nuw i8, ptr %7, i64 144
  %9 = load ptr, ptr %8, align 8
  %10 = ptrtoint ptr %6 to i64
  %11 = ptrtoint ptr %9 to i64
  %12 = sub i64 %10, %11
  store i64 %12, ptr %0, align 8
  %13 = getelementptr inbounds i8, ptr %3, i64 36
  %14 = load i32, ptr %13, align 4
  %15 = zext i32 %14 to i64
  %16 = getelementptr inbounds nuw i8, ptr %0, i64 8
  store i64 %15, ptr %16, align 8
  %17 = getelementptr inbounds i8, ptr %3, i64 40
  %18 = load i32, ptr %17, align 8
  %19 = zext i32 %18 to i64
  %20 = getelementptr inbounds nuw i8, ptr %0, i64 16
  store i64 %19, ptr %20, align 8
  %21 = getelementptr inbounds i8, ptr %3, i64 32
  %22 = load i32, ptr %21, align 8
  %23 = zext i32 %22 to i64
  %24 = getelementptr inbounds nuw i8, ptr %0, i64 24
  store i64 %23, ptr %24, align 8
  %25 = getelementptr inbounds i8, ptr %3, i64 24
  %26 = load i16, ptr %25, align 8
  %27 = getelementptr inbounds nuw i8, ptr %0, i64 32
  store i16 %26, ptr %27, align 8
  %28 = getelementptr inbounds i8, ptr %3, i64 22
  %29 = load i16, ptr %28, align 2
  %30 = getelementptr inbounds nuw i8, ptr %0, i64 34
  %31 = trunc i16 %29 to i8
  %32 = and i8 %31, 1
  store i8 %32, ptr %30, align 2
  br label %33

33:                                               ; preds = %4, %2
  ret void
}